; Function Attrs: mustprogress nofree norecurse nosync nounwind willreturn memory(read, inaccessiblemem: none) uwtable
define dso_local noundef zeroext i1 @_ZNK5vcpkg25BufferedDiagnosticContext10any_errorsEv(ptr noundef nonnull readonly align 8 captures(none) dereferenceable(40) %0) local_unnamed_addr #9 align 2 personality ptr @__gxx_personality_v0 {
  %2 = getelementptr inbounds nuw i8, ptr %0, i64 16
  %.val = load ptr, ptr %2, align 8, !tbaa !65
  %3 = getelementptr inbounds nuw i8, ptr %0, i64 24
  %.val1 = load ptr, ptr %3, align 8, !tbaa !65
  %.not45.not.i = icmp eq ptr %.val, %.val1
  br i1 %.not45.not.i, label %_ZN12_GLOBAL__N_127diagnostic_lines_any_errorsERKSt6vectorIN5vcpkg14DiagnosticLineESaIS2_EE.exit, label %.lr.ph.i

.lr.ph.i:                                         ; preds = %1, %.lr.ph.i
  %.sroa.01.06.i = phi ptr [ %5, %.lr.ph.i ], [ %.val, %1 ]
  %4 = load i32, ptr %.sroa.01.06.i, align 8, !tbaa !30
  %.not.i = icmp eq i32 %4, 2
  %5 = getelementptr inbounds nuw i8, ptr %.sroa.01.06.i, i64 88
  %.not4.not.i = icmp eq ptr %5, %.val1
  %or.cond = select i1 %.not.i, i1 true, i1 %.not4.not.i
  br i1 %or.cond, label %_ZN12_GLOBAL__N_127diagnostic_lines_any_errorsERKSt6vectorIN5vcpkg14DiagnosticLineESaIS2_EE.exit, label %.lr.ph.i

_ZN12_GLOBAL__N_127diagnostic_lines_any_errorsERKSt6vectorIN5vcpkg14DiagnosticLineESaIS2_EE.exit: ; preds = %.lr.ph.i, %1
  %.not4.lcssa.i = phi i1 [ false, %1 ], [ %.not.i, %.lr.ph.i ]
  ret i1 %.not4.lcssa.i
}